target datalayout = "e-m:e-p270:32:32-p271:32:32-p272:64:64-i64:64-i128:128-f80:128-n8:16:32:64-S128"
target triple = "x86_64-pc-linux-gnu"

%"class.pxrInternal_v0_24__pxrReserved__::GfMatrix4d" = type { %"class.pxrInternal_v0_24__pxrReserved__::GfMatrixData" }
%"class.pxrInternal_v0_24__pxrReserved__::GfMatrixData" = type { [16 x double] }
%"class.pxrInternal_v0_24__pxrReserved__::GfMatrix3d" = type { %"class.pxrInternal_v0_24__pxrReserved__::GfMatrixData.16" }
%"class.pxrInternal_v0_24__pxrReserved__::GfMatrixData.16" = type { [9 x double] }

; Function Attrs: mustprogress nounwind uwtable
define linkonce_odr noundef ptr @_ZN32pxrInternal_v0_24__pxrReserved__12GfMatrixDataIdLi3ELi3EEixEi(ptr noundef nonnull align 8 dereferenceable(72) %0, i32 noundef %1) #2 comdat align 2 {
  %3 = alloca ptr, align 8
  %4 = alloca i32, align 4
  store ptr %0, ptr %3, align 8
  store i32 %1, ptr %4, align 4
  %5 = load ptr, ptr %3, align 8
  %6 = getelementptr inbounds nuw %"class.pxrInternal_v0_24__pxrReserved__::GfMatrixData.16", ptr %5, i32 0, i32 0
  %7 = getelementptr inbounds [9 x double], ptr %6, i64 0, i64 0
  %8 = load i32, ptr %4, align 4
  %9 = mul nsw i32 %8, 3
  %10 = sext i32 %9 to i64
  %11 = getelementptr inbounds double, ptr %7, i64 %10
  ret ptr %11
}

; Function Attrs: mustprogress uwtable
define linkonce_odr noundef nonnull align 8 dereferenceable(72) ptr @_ZN32pxrInternal_v0_24__pxrReserved__10GfMatrix3d3SetEddddddddd(ptr noundef nonnull align 8 dereferenceable(72) %0, double noundef %1, double noundef %2, double noundef %3, double noundef %4, double noundef %5, double noundef %6, double noundef %7, double noundef %8, double noundef %9) #0 comdat align 2 {
  %11 = alloca ptr, align 8
  %12 = alloca double, align 8
  %13 = alloca double, align 8
  %14 = alloca double, align 8
  %15 = alloca double, align 8
  %16 = alloca double, align 8
  %17 = alloca double, align 8
  %18 = alloca double, align 8
  %19 = alloca double, align 8
  %20 = alloca double, align 8
  store ptr %0, ptr %11, align 8
  store double %1, ptr %12, align 8
  store double %2, ptr %13, align 8
  store double %3, ptr %14, align 8
  store double %4, ptr %15, align 8
  store double %5, ptr %16, align 8
  store double %6, ptr %17, align 8
  store double %7, ptr %18, align 8
  store double %8, ptr %19, align 8
  store double %9, ptr %20, align 8
  %21 = load ptr, ptr %11, align 8
  %22 = load double, ptr %12, align 8
  %23 = getelementptr inbounds nuw %"class.pxrInternal_v0_24__pxrReserved__::GfMatrix3d", ptr %21, i32 0, i32 0
  %24 = call noundef ptr @_ZN32pxrInternal_v0_24__pxrReserved__12GfMatrixDataIdLi3ELi3EEixEi(ptr noundef nonnull align 8 dereferenceable(72) %23, i32 noundef 0)
  %25 = getelementptr inbounds double, ptr %24, i64 0
  store double %22, ptr %25, align 8
  %26 = load double, ptr %13, align 8
  %27 = getelementptr inbounds nuw %"class.pxrInternal_v0_24__pxrReserved__::GfMatrix3d", ptr %21, i32 0, i32 0
  %28 = call noundef ptr @_ZN32pxrInternal_v0_24__pxrReserved__12GfMatrixDataIdLi3ELi3EEixEi(ptr noundef nonnull align 8 dereferenceable(72) %27, i32 noundef 0)
  %29 = getelementptr inbounds double, ptr %28, i64 1
  store double %26, ptr %29, align 8
  %30 = load double, ptr %14, align 8
  %31 = getelementptr inbounds nuw %"class.pxrInternal_v0_24__pxrReserved__::GfMatrix3d", ptr %21, i32 0, i32 0
  %32 = call noundef ptr @_ZN32pxrInternal_v0_24__pxrReserved__12GfMatrixDataIdLi3ELi3EEixEi(ptr noundef nonnull align 8 dereferenceable(72) %31, i32 noundef 0)
  %33 = getelementptr inbounds double, ptr %32, i64 2
  store double %30, ptr %33, align 8
  %34 = load double, ptr %15, align 8
  %35 = getelementptr inbounds nuw %"class.pxrInternal_v0_24__pxrReserved__::GfMatrix3d", ptr %21, i32 0, i32 0
  %36 = call noundef ptr @_ZN32pxrInternal_v0_24__pxrReserved__12GfMatrixDataIdLi3ELi3EEixEi(ptr noundef nonnull align 8 dereferenceable(72) %35, i32 noundef 1)
  %37 = getelementptr inbounds double, ptr %36, i64 0
  store double %34, ptr %37, align 8
  %38 = load double, ptr %16, align 8
  %39 = getelementptr inbounds nuw %"class.pxrInternal_v0_24__pxrReserved__::GfMatrix3d", ptr %21, i32 0, i32 0
  %40 = call noundef ptr @_ZN32pxrInternal_v0_24__pxrReserved__12GfMatrixDataIdLi3ELi3EEixEi(ptr noundef nonnull align 8 dereferenceable(72) %39, i32 noundef 1)
  %41 = getelementptr inbounds double, ptr %40, i64 1
  store double %38, ptr %41, align 8
  %42 = load double, ptr %17, align 8
  %43 = getelementptr inbounds nuw %"class.pxrInternal_v0_24__pxrReserved__::GfMatrix3d", ptr %21, i32 0, i32 0
  %44 = call noundef ptr @_ZN32pxrInternal_v0_24__pxrReserved__12GfMatrixDataIdLi3ELi3EEixEi(ptr noundef nonnull align 8 dereferenceable(72) %43, i32 noundef 1)
  %45 = getelementptr inbounds double, ptr %44, i64 2
  store double %42, ptr %45, align 8
  %46 = load double, ptr %18, align 8
  %47 = getelementptr inbounds nuw %"class.pxrInternal_v0_24__pxrReserved__::GfMatrix3d", ptr %21, i32 0, i32 0
  %48 = call noundef ptr @_ZN32pxrInternal_v0_24__pxrReserved__12GfMatrixDataIdLi3ELi3EEixEi(ptr noundef nonnull align 8 dereferenceable(72) %47, i32 noundef 2)
  %49 = getelementptr inbounds double, ptr %48, i64 0
  store double %46, ptr %49, align 8
  %50 = load double, ptr %19, align 8
  %51 = getelementptr inbounds nuw %"class.pxrInternal_v0_24__pxrReserved__::GfMatrix3d", ptr %21, i32 0, i32 0
  %52 = call noundef ptr @_ZN32pxrInternal_v0_24__pxrReserved__12GfMatrixDataIdLi3ELi3EEixEi(ptr noundef nonnull align 8 dereferenceable(72) %51, i32 noundef 2)
  %53 = getelementptr inbounds double, ptr %52, i64 1
  store double %50, ptr %53, align 8
  %54 = load double, ptr %20, align 8
  %55 = getelementptr inbounds nuw %"class.pxrInternal_v0_24__pxrReserved__::GfMatrix3d", ptr %21, i32 0, i32 0
  %56 = call noundef ptr @_ZN32pxrInternal_v0_24__pxrReserved__12GfMatrixDataIdLi3ELi3EEixEi(ptr noundef nonnull align 8 dereferenceable(72) %55, i32 noundef 2)
  %57 = getelementptr inbounds double, ptr %56, i64 2
  store double %54, ptr %57, align 8
  ret ptr %21
}

; Function Attrs: mustprogress uwtable
define linkonce_odr void @_ZN32pxrInternal_v0_24__pxrReserved__10GfMatrix3dC2Eddddddddd(ptr noundef nonnull align 8 dereferenceable(72) %0, double noundef %1, double noundef %2, double noundef %3, double noundef %4, double noundef %5, double noundef %6, double noundef %7, double noundef %8, double noundef %9) unnamed_addr #0 comdat align 2 {
  %11 = alloca ptr, align 8
  %12 = alloca double, align 8
  %13 = alloca double, align 8
  %14 = alloca double, align 8
  %15 = alloca double, align 8
  %16 = alloca double, align 8
  %17 = alloca double, align 8
  %18 = alloca double, align 8
  %19 = alloca double, align 8
  %20 = alloca double, align 8
  store ptr %0, ptr %11, align 8
  store double %1, ptr %12, align 8
  store double %2, ptr %13, align 8
  store double %3, ptr %14, align 8
  store double %4, ptr %15, align 8
  store double %5, ptr %16, align 8
  store double %6, ptr %17, align 8
  store double %7, ptr %18, align 8
  store double %8, ptr %19, align 8
  store double %9, ptr %20, align 8
  %21 = load ptr, ptr %11, align 8
  %22 = load double, ptr %12, align 8
  %23 = load double, ptr %13, align 8
  %24 = load double, ptr %14, align 8
  %25 = load double, ptr %15, align 8
  %26 = load double, ptr %16, align 8
  %27 = load double, ptr %17, align 8
  %28 = load double, ptr %18, align 8
  %29 = load double, ptr %19, align 8
  %30 = load double, ptr %20, align 8
  %31 = call noundef nonnull align 8 dereferenceable(72) ptr @_ZN32pxrInternal_v0_24__pxrReserved__10GfMatrix3d3SetEddddddddd(ptr noundef nonnull align 8 dereferenceable(72) %21, double noundef %22, double noundef %23, double noundef %24, double noundef %25, double noundef %26, double noundef %27, double noundef %28, double noundef %29, double noundef %30)
  ret void
}

; Function Attrs: mustprogress nounwind uwtable
define linkonce_odr noundef ptr @_ZNK32pxrInternal_v0_24__pxrReserved__12GfMatrixDataIdLi4ELi4EEixEi(ptr noundef nonnull align 8 dereferenceable(128) %0, i32 noundef %1) #2 comdat align 2 {
  %3 = alloca ptr, align 8
  %4 = alloca i32, align 4
  store ptr %0, ptr %3, align 8
  store i32 %1, ptr %4, align 4
  %5 = load ptr, ptr %3, align 8
  %6 = getelementptr inbounds nuw %"class.pxrInternal_v0_24__pxrReserved__::GfMatrixData", ptr %5, i32 0, i32 0
  %7 = getelementptr inbounds [16 x double], ptr %6, i64 0, i64 0
  %8 = load i32, ptr %4, align 4
  %9 = mul nsw i32 %8, 4
  %10 = sext i32 %9 to i64
  %11 = getelementptr inbounds double, ptr %7, i64 %10
  ret ptr %11
}

; Function Attrs: mustprogress uwtable
define void @_ZNK32pxrInternal_v0_24__pxrReserved__10GfMatrix4d21ExtractRotationMatrixEv(ptr dead_on_unwind noalias writable sret(%"class.pxrInternal_v0_24__pxrReserved__::GfMatrix3d") align 8 %0, ptr noundef nonnull align 8 dereferenceable(128) %1) #0 align 2 {
  %3 = alloca ptr, align 8
  store ptr %1, ptr %3, align 8
  %4 = load ptr, ptr %3, align 8
  %5 = getelementptr inbounds nuw %"class.pxrInternal_v0_24__pxrReserved__::GfMatrix4d", ptr %4, i32 0, i32 0
  %6 = call noundef ptr @_ZNK32pxrInternal_v0_24__pxrReserved__12GfMatrixDataIdLi4ELi4EEixEi(ptr noundef nonnull align 8 dereferenceable(128) %5, i32 noundef 0)
  %7 = getelementptr inbounds double, ptr %6, i64 0
  %8 = load double, ptr %7, align 8
  %9 = getelementptr inbounds nuw %"class.pxrInternal_v0_24__pxrReserved__::GfMatrix4d", ptr %4, i32 0, i32 0
  %10 = call noundef ptr @_ZNK32pxrInternal_v0_24__pxrReserved__12GfMatrixDataIdLi4ELi4EEixEi(ptr noundef nonnull align 8 dereferenceable(128) %9, i32 noundef 0)
  %11 = getelementptr inbounds double, ptr %10, i64 1
  %12 = load double, ptr %11, align 8
  %13 = getelementptr inbounds nuw %"class.pxrInternal_v0_24__pxrReserved__::GfMatrix4d", ptr %4, i32 0, i32 0
  %14 = call noundef ptr @_ZNK32pxrInternal_v0_24__pxrReserved__12GfMatrixDataIdLi4ELi4EEixEi(ptr noundef nonnull align 8 dereferenceable(128) %13, i32 noundef 0)
  %15 = getelementptr inbounds double, ptr %14, i64 2
  %16 = load double, ptr %15, align 8
  %17 = getelementptr inbounds nuw %"class.pxrInternal_v0_24__pxrReserved__::GfMatrix4d", ptr %4, i32 0, i32 0
  %18 = call noundef ptr @_ZNK32pxrInternal_v0_24__pxrReserved__12GfMatrixDataIdLi4ELi4EEixEi(ptr noundef nonnull align 8 dereferenceable(128) %17, i32 noundef 1)
  %19 = getelementptr inbounds double, ptr %18, i64 0
  %20 = load double, ptr %19, align 8
  %21 = getelementptr inbounds nuw %"class.pxrInternal_v0_24__pxrReserved__::GfMatrix4d", ptr %4, i32 0, i32 0
  %22 = call noundef ptr @_ZNK32pxrInternal_v0_24__pxrReserved__12GfMatrixDataIdLi4ELi4EEixEi(ptr noundef nonnull align 8 dereferenceable(128) %21, i32 noundef 1)
  %23 = getelementptr inbounds double, ptr %22, i64 1
  %24 = load double, ptr %23, align 8
  %25 = getelementptr inbounds nuw %"class.pxrInternal_v0_24__pxrReserved__::GfMatrix4d", ptr %4, i32 0, i32 0
  %26 = call noundef ptr @_ZNK32pxrInternal_v0_24__pxrReserved__12GfMatrixDataIdLi4ELi4EEixEi(ptr noundef nonnull align 8 dereferenceable(128) %25, i32 noundef 1)
  %27 = getelementptr inbounds double, ptr %26, i64 2
  %28 = load double, ptr %27, align 8
  %29 = getelementptr inbounds nuw %"class.pxrInternal_v0_24__pxrReserved__::GfMatrix4d", ptr %4, i32 0, i32 0
  %30 = call noundef ptr @_ZNK32pxrInternal_v0_24__pxrReserved__12GfMatrixDataIdLi4ELi4EEixEi(ptr noundef nonnull align 8 dereferenceable(128) %29, i32 noundef 2)
  %31 = getelementptr inbounds double, ptr %30, i64 0
  %32 = load double, ptr %31, align 8
  %33 = getelementptr inbounds nuw %"class.pxrInternal_v0_24__pxrReserved__::GfMatrix4d", ptr %4, i32 0, i32 0
  %34 = call noundef ptr @_ZNK32pxrInternal_v0_24__pxrReserved__12GfMatrixDataIdLi4ELi4EEixEi(ptr noundef nonnull align 8 dereferenceable(128) %33, i32 noundef 2)
  %35 = getelementptr inbounds double, ptr %34, i64 1
  %36 = load double, ptr %35, align 8
  %37 = getelementptr inbounds nuw %"class.pxrInternal_v0_24__pxrReserved__::GfMatrix4d", ptr %4, i32 0, i32 0
  %38 = call noundef ptr @_ZNK32pxrInternal_v0_24__pxrReserved__12GfMatrixDataIdLi4ELi4EEixEi(ptr noundef nonnull align 8 dereferenceable(128) %37, i32 noundef 2)
  %39 = getelementptr inbounds double, ptr %38, i64 2
  %40 = load double, ptr %39, align 8
  call void @_ZN32pxrInternal_v0_24__pxrReserved__10GfMatrix3dC2Eddddddddd(ptr noundef nonnull align 8 dereferenceable(72) %0, double noundef %8, double noundef %12, double noundef %16, double noundef %20, double noundef %24, double noundef %28, double noundef %32, double noundef %36, double noundef %40)
  ret void
}