; Function Attrs: mustprogress nofree norecurse nosync nounwind willreturn memory(argmem: readwrite) uwtable
define void @_ZNK32pxrInternal_v0_24__pxrReserved__10GfMatrix4d21ExtractRotationMatrixEv(ptr dead_on_unwind noalias nocapture writable writeonly sret(%"class.pxrInternal_v0_24__pxrReserved__::GfMatrix3d") align 8 %0, ptr nocapture noundef nonnull readonly align 8 dereferenceable(128) %1) local_unnamed_addr #2 align 2 {
  %3 = load double, ptr %1, align 8
  %4 = getelementptr inbounds i8, ptr %1, i64 8
  %5 = load double, ptr %4, align 8
  %6 = getelementptr inbounds i8, ptr %1, i64 16
  %7 = load double, ptr %6, align 8
  %8 = getelementptr inbounds i8, ptr %1, i64 32
  %9 = load double, ptr %8, align 8
  %10 = getelementptr inbounds i8, ptr %1, i64 40
  %11 = load double, ptr %10, align 8
  %12 = getelementptr inbounds i8, ptr %1, i64 48
  %13 = load double, ptr %12, align 8
  %14 = getelementptr inbounds i8, ptr %1, i64 64
  %15 = load double, ptr %14, align 8
  %16 = getelementptr inbounds i8, ptr %1, i64 72
  %17 = load double, ptr %16, align 8
  %18 = getelementptr inbounds i8, ptr %1, i64 80
  %19 = load double, ptr %18, align 8
  store double %3, ptr %0, align 8
  %20 = getelementptr inbounds i8, ptr %0, i64 8
  store double %5, ptr %20, align 8
  %21 = getelementptr inbounds i8, ptr %0, i64 16
  store double %7, ptr %21, align 8
  %22 = getelementptr inbounds i8, ptr %0, i64 24
  store double %9, ptr %22, align 8
  %23 = getelementptr inbounds i8, ptr %0, i64 32
  store double %11, ptr %23, align 8
  %24 = getelementptr inbounds i8, ptr %0, i64 40
  store double %13, ptr %24, align 8
  %25 = getelementptr inbounds i8, ptr %0, i64 48
  store double %15, ptr %25, align 8
  %26 = getelementptr inbounds i8, ptr %0, i64 56
  store double %17, ptr %26, align 8
  %27 = getelementptr inbounds i8, ptr %0, i64 64
  store double %19, ptr %27, align 8
  ret void
}